Certificate:
    Data:
        Version: 3 (0x2)
        Serial Number: 4097 (0x1001)
    Signature Algorithm: sha256WithRSAEncryption
        Issuer: C=CN, ST=Guangdong, L=GZ, O=KTH, OU=COS, CN=TP CA shimin@kth.se jzhe@kth.se/emailAddress=shimin@kth.se
        Validity
            Not Before: Dec 17 14:41:24 2017 GMT
            Not After : Dec 17 14:41:24 2018 GMT
        Subject: C=CN, ST=Guangdong, O=KTH, OU=COS, CN=TP Client shimin@kth.se jzhe@kth.se/emailAddress=shimin@kth.se
        Subject Public Key Info:
            Public Key Algorithm: rsaEncryption
                Public-Key: (1024 bit)
                Modulus:
                    00:d8:e1:c3:87:3b:e6:71:36:4f:28:bc:c7:71:a2:
                    04:1a:36:b1:ec:be:fa:30:79:42:c5:ac:c2:e8:54:
                    35:b1:50:03:01:43:3d:2b:52:3b:9b:4a:cc:5e:6d:
                    d6:21:34:8c:16:c8:65:c3:d1:e5:27:bd:ad:20:6b:
                    5f:a1:56:f6:8c:2a:7b:7f:75:93:8f:87:75:d3:bc:
                    49:60:2f:92:bf:16:1e:d3:3f:c0:80:0c:e4:94:a3:
                    2b:58:58:66:eb:e1:c7:a6:8a:27:4d:ae:fa:5d:b7:
                    10:75:72:2b:54:10:65:ce:16:84:ab:8c:61:67:1f:
                    00:39:4f:0e:0c:b2:3d:f5:7b
                Exponent: 65537 (0x10001)
        X509v3 extensions:
            X509v3 Basic Constraints: 
                CA:FALSE
            X509v3 Key Usage: 
                Digital Signature, Non Repudiation, Key Encipherment
            Netscape Comment: 
                OpenSSL Generated Certificate
            X509v3 Subject Key Identifier: 
                6E:32:F6:45:CC:15:E7:57:F7:24:D9:9D:23:D8:A0:47:53:7C:5A:B3
            X509v3 Authority Key Identifier: 
                keyid:5C:0A:2E:A9:C3:A8:95:BA:18:1C:1A:19:0A:2F:CD:2D:E4:1C:B6:4F

    Signature Algorithm: sha256WithRSAEncryption
         36:04:a5:dd:73:38:ca:d7:c6:c2:f7:50:de:d1:a3:2c:18:e5:
         95:83:da:0a:31:43:47:75:be:8e:e9:2f:27:5e:6c:23:04:d4:
         6e:4b:70:00:5b:8f:86:70:8c:f8:92:39:e9:b4:83:48:78:f6:
         fc:fd:d9:4c:1c:28:6b:68:20:5b:b3:7f:90:e9:00:6e:bb:ec:
         72:80:f0:9f:b8:41:11:93:23:c0:dd:75:c5:55:8d:58:ac:54:
         30:85:95:d6:2a:cb:9b:6d:7d:05:d8:b2:e9:68:10:ac:20:85:
         83:ff:c7:80:6b:d9:59:ca:74:3a:53:34:f6:66:e2:76:ea:ce:
         f1:3a:c6:b2:be:d2:f4:04:c8:e4:bc:5f:ec:1d:55:d9:79:1f:
         b5:a6:e9:f3:a6:ef:6f:83:80:40:b4:95:b8:04:95:a5:da:35:
         6e:79:57:70:f9:4f:6f:94:5a:79:3d:53:f6:9b:4b:ad:22:09:
         fd:88:5e:92:bc:5d:bb:0b:69:00:88:91:1f:4c:e3:b1:b8:95:
         06:8e:00:42:ab:99:78:14:00:69:3d:15:60:e9:05:34:03:96:
         8c:9b:91:dd:34:a3:16:49:6c:6b:eb:c0:52:5d:7c:5a:67:72:
         c3:cc:a4:86:ba:6b:c4:73:5a:72:eb:51:65:20:71:7b:f1:65:
         ec:30:8e:f0:d8:29:c6:e9:b4:6b:95:38:2d:b2:cb:3e:10:6f:
         1c:3f:b2:4c:ae:f2:f6:64:15:a7:6c:1c:48:17:e2:6e:50:c3:
         db:0f:99:3f:65:0a:b0:0c:32:f7:8f:90:f4:9b:f6:6e:98:20:
         42:04:06:63:b3:d1:98:0e:8e:c4:07:37:66:1c:fe:3c:23:db:
         52:f1:c1:a4:f0:d3:7c:c8:4a:6c:44:54:e2:0f:1d:cc:f1:92:
         3b:58:e1:78:30:3e:81:e0:16:fa:24:5f:59:6b:d4:9f:d0:2a:
         48:55:1b:4d:a5:f8:9c:72:2b:b2:3c:30:ff:33:85:fd:f9:57:
         43:2f:2c:3b:c9:8e:4b:67:e9:89:7d:7b:d3:97:72:ff:f4:b9:
         6b:5b:85:60:1f:f8:52:f7:5e:dd:aa:f3:89:6e:f2:67:c3:39:
         77:17:0b:fd:c7:cb:d9:63:63:b7:2c:9b:07:a3:01:5e:f3:36:
         8d:28:c6:41:54:7b:ba:e6:1a:a1:3d:91:8d:e6:c1:0d:42:b3:
         b9:ba:4f:23:c5:9a:0c:bf:f2:c4:26:c8:2b:6d:f6:97:d0:72:
         f3:e1:c9:15:06:3a:2d:28:0d:a0:9e:b6:62:76:b9:3b:c9:49:
         43:70:33:f9:ff:cd:68:93:e3:9b:48:f4:15:29:49:10:25:33:
         1e:22:03:d0:69:90:50:7f
-----BEGIN CERTIFICATE-----
MIIEnzCCAoegAwIBAgICEAEwDQYJKoZIhvcNAQELBQAwgZIxCzAJBgNVBAYTAkNO
MRIwEAYDVQQIDAlHdWFuZ2RvbmcxCzAJBgNVBAcMAkdaMQwwCgYDVQQKDANLVEgx
DDAKBgNVBAsMA0NPUzEoMCYGA1UEAwwfVFAgQ0Egc2hpbWluQGt0aC5zZSBqemhl
QGt0aC5zZTEcMBoGCSqGSIb3DQEJARYNc2hpbWluQGt0aC5zZTAeFw0xNzEyMTcx
NDQxMjRaFw0xODEyMTcxNDQxMjRaMIGJMQswCQYDVQQGEwJDTjESMBAGA1UECAwJ
R3Vhbmdkb25nMQwwCgYDVQQKDANLVEgxDDAKBgNVBAsMA0NPUzEsMCoGA1UEAwwj
VFAgQ2xpZW50IHNoaW1pbkBrdGguc2UganpoZUBrdGguc2UxHDAaBgkqhkiG9w0B
CQEWDXNoaW1pbkBrdGguc2UwgZ8wDQYJKoZIhvcNAQEBBQADgY0AMIGJAoGBANjh
w4c75nE2Tyi8x3GiBBo2sey++jB5QsWswuhUNbFQAwFDPStSO5tKzF5t1iE0jBbI
ZcPR5Se9rSBrX6FW9owqe391k4+HddO8SWAvkr8WHtM/wIAM5JSjK1hYZuvhx6aK
J02u+l23EHVyK1QQZc4WhKuMYWcfADlPDgyyPfV7AgMBAAGjgYkwgYYwCQYDVR0T
BAIwADALBgNVHQ8EBAMCBeAwLAYJYIZIAYb4QgENBB8WHU9wZW5TU0wgR2VuZXJh
dGVkIENlcnRpZmljYXRlMB0GA1UdDgQWBBRuMvZFzBXnV/ck2Z0j2KBHU3xaszAf
BgNVHSMEGDAWgBRcCi6pw6iVuhgcGhkKL80t5By2TzANBgkqhkiG9w0BAQsFAAOC
AgEANgSl3XM4ytfGwvdQ3tGjLBjllYPaCjFDR3W+jukvJ15sIwTUbktwAFuPhnCM
+JI56bSDSHj2/P3ZTBwoa2ggW7N/kOkAbrvscoDwn7hBEZMjwN11xVWNWKxUMIWV
1irLm219Bdiy6WgQrCCFg//HgGvZWcp0OlM09mbidurO8TrGsr7S9ATI5Lxf7B1V
2Xkftabp86bvb4OAQLSVuASVpdo1bnlXcPlPb5RaeT1T9ptLrSIJ/Yhekrxduwtp
AIiRH0zjsbiVBo4AQquZeBQAaT0VYOkFNAOWjJuR3TSjFklsa+vAUl18Wmdyw8yk
hrprxHNacutRZSBxe/Fl7DCO8Ngpxum0a5U4LbLLPhBvHD+yTK7y9mQVp2wcSBfi
blDD2w+ZP2UKsAwy94+Q9Jv2bpggQgQGY7PRmA6OxAc3Zhz+PCPbUvHBpPDTfMhK
bERU4g8dzPGSO1jheDA+geAW+iRfWWvUn9AqSFUbTaX4nHIrsjww/zOF/flXQy8s
O8mOS2fpiX1705dy//S5a1uFYB/4Uvde3arziW7yZ8M5dxcL/cfL2WNjtyybB6MB
XvM2jSjGQVR7uuYaoT2RjebBDUKzubpPI8WaDL/yxCbIK232l9By8+HJFQY6LSgN
oJ62Yna5O8lJQ3Az+f/NaJPjm0j0FSlJECUzHiID0GmQUH8=
-----END CERTIFICATE-----
