Certificate:
    Data:
        Version: 3 (0x2)
        Serial Number: 4096 (0x1000)
    Signature Algorithm: sha256WithRSAEncryption
        Issuer: C=CN, ST=Guangdong, L=GZ, O=KTH, OU=COS, CN=TP CA shimin@kth.se jzhe@kth.se/emailAddress=shimin@kth.se
        Validity
            Not Before: Dec 17 14:29:16 2017 GMT
            Not After : Dec 17 14:29:16 2018 GMT
        Subject: C=CN, ST=Guangdong, O=KTH, OU=COS, CN=TP Server shimin@kth.se jzhe@kth.se/emailAddress=shimin@kth.se
        Subject Public Key Info:
            Public Key Algorithm: rsaEncryption
                Public-Key: (1024 bit)
                Modulus:
                    00:c1:a3:cb:4f:00:28:ec:f4:0b:43:09:98:f6:83:
                    13:cb:f3:c5:b3:bf:41:39:de:95:9a:39:ba:c7:70:
                    fb:4d:f4:fc:e1:6f:db:e5:8f:f0:04:45:f1:72:2e:
                    1e:a8:c7:fa:ed:c2:01:d8:5b:45:6d:91:2a:0b:21:
                    3d:13:07:f7:8a:7c:6f:aa:29:75:18:c5:fe:3b:7b:
                    09:14:5c:71:88:05:73:5e:40:ae:06:65:d3:14:fb:
                    8b:38:b7:f0:81:09:d5:ec:6c:a3:98:e9:69:f3:60:
                    cd:4c:3f:3a:75:e4:8e:96:c7:0a:59:57:f2:83:5f:
                    d1:73:7c:9e:25:27:ab:9c:75
                Exponent: 65537 (0x10001)
        X509v3 extensions:
            X509v3 Basic Constraints: 
                CA:FALSE
            X509v3 Key Usage: 
                Digital Signature, Non Repudiation, Key Encipherment
            Netscape Comment: 
                OpenSSL Generated Certificate
            X509v3 Subject Key Identifier: 
                71:48:66:3B:B2:C0:8E:42:F8:DA:97:76:59:0B:15:84:1D:F3:DD:B8
            X509v3 Authority Key Identifier: 
                keyid:5C:0A:2E:A9:C3:A8:95:BA:18:1C:1A:19:0A:2F:CD:2D:E4:1C:B6:4F

    Signature Algorithm: sha256WithRSAEncryption
         a6:cb:c3:1b:23:da:dc:b8:64:67:1b:e5:fa:6f:3c:0a:d8:d4:
         ea:32:a9:3b:42:38:0b:0a:0b:d7:d9:2b:b9:a8:3d:b6:b5:6a:
         45:46:07:27:ea:53:97:0a:07:06:32:58:52:5e:17:ad:ec:16:
         77:1b:1f:24:dd:72:de:b7:16:a1:a8:75:7d:8b:23:e8:1e:52:
         46:13:93:e9:f9:8b:74:7e:0c:bc:e9:ec:de:ef:dd:68:c1:9f:
         c5:77:fc:2a:34:e0:34:ab:23:ab:bf:e5:f7:52:8f:5a:30:d0:
         35:4c:79:d0:8c:e1:72:ae:e2:45:3b:5d:a4:1c:b4:fe:46:0d:
         84:4e:62:96:15:72:85:28:dd:c4:45:51:9f:7d:ce:68:63:80:
         a9:fc:4d:79:25:9f:68:1c:be:b0:a9:69:8c:30:2a:d2:96:08:
         a4:19:5c:d7:5b:08:fc:56:93:89:0c:7c:f3:3b:c5:1c:c7:a8:
         69:27:75:08:b6:8b:02:55:97:03:19:4d:7d:17:f0:93:11:5e:
         f5:7a:08:f3:ee:c8:93:5a:af:4f:91:d2:e4:20:47:4b:da:23:
         24:2a:f7:4f:a4:94:8a:6e:9c:1f:21:09:fa:75:f7:5d:34:96:
         21:31:8a:97:e1:c9:02:6f:3a:f5:ef:06:90:b9:97:49:ad:54:
         72:72:65:b2:ec:1d:53:26:ab:a8:76:42:1f:fa:c2:a2:b8:d6:
         20:0e:db:70:68:26:57:65:d8:ef:2d:9f:25:d2:02:cf:cd:56:
         e0:c6:4a:07:32:a2:09:01:05:8f:33:e0:f2:84:13:de:4e:b7:
         75:13:09:c5:ed:b0:eb:d9:3f:b8:48:a8:c0:b6:2d:7a:fc:f0:
         a4:08:01:e8:d0:87:a8:9c:cd:0c:6c:d6:b1:a4:fc:a9:49:ac:
         38:f3:93:a0:37:09:2b:df:fe:92:91:88:b3:d4:fa:8c:f2:d9:
         3f:c6:db:69:b6:a3:df:ae:9c:bc:ca:43:08:6b:c6:9e:4b:31:
         d9:b9:a5:b2:df:03:60:0f:02:79:d6:ee:5e:46:43:e7:1d:00:
         b6:5b:97:ff:ae:79:dc:77:6c:f7:83:fd:b0:e9:a3:42:01:a3:
         e2:5b:b1:8c:a0:95:99:1b:ed:6d:19:4f:59:43:4c:3a:4c:0a:
         22:9d:a4:c6:fe:31:ca:73:42:c9:7f:0c:b6:1b:e1:c2:ad:02:
         fb:6e:7b:8e:7b:bf:36:cf:0e:9d:36:2e:67:ec:c0:64:3d:28:
         39:36:9e:cf:14:a9:a3:1b:8d:af:4a:e7:6a:3e:c6:7e:3f:da:
         7b:84:b9:65:c0:ba:ee:e8:bf:14:b0:d5:6f:de:5c:56:ec:4d:
         e0:9d:46:db:1d:ad:eb:59
-----BEGIN CERTIFICATE-----
MIIEnzCCAoegAwIBAgICEAAwDQYJKoZIhvcNAQELBQAwgZIxCzAJBgNVBAYTAkNO
MRIwEAYDVQQIDAlHdWFuZ2RvbmcxCzAJBgNVBAcMAkdaMQwwCgYDVQQKDANLVEgx
DDAKBgNVBAsMA0NPUzEoMCYGA1UEAwwfVFAgQ0Egc2hpbWluQGt0aC5zZSBqemhl
QGt0aC5zZTEcMBoGCSqGSIb3DQEJARYNc2hpbWluQGt0aC5zZTAeFw0xNzEyMTcx
NDI5MTZaFw0xODEyMTcxNDI5MTZaMIGJMQswCQYDVQQGEwJDTjESMBAGA1UECAwJ
R3Vhbmdkb25nMQwwCgYDVQQKDANLVEgxDDAKBgNVBAsMA0NPUzEsMCoGA1UEAwwj
VFAgU2VydmVyIHNoaW1pbkBrdGguc2UganpoZUBrdGguc2UxHDAaBgkqhkiG9w0B
CQEWDXNoaW1pbkBrdGguc2UwgZ8wDQYJKoZIhvcNAQEBBQADgY0AMIGJAoGBAMGj
y08AKOz0C0MJmPaDE8vzxbO/QTnelZo5usdw+030/OFv2+WP8ARF8XIuHqjH+u3C
AdhbRW2RKgshPRMH94p8b6opdRjF/jt7CRRccYgFc15ArgZl0xT7izi38IEJ1exs
o5jpafNgzUw/OnXkjpbHCllX8oNf0XN8niUnq5x1AgMBAAGjgYkwgYYwCQYDVR0T
BAIwADALBgNVHQ8EBAMCBeAwLAYJYIZIAYb4QgENBB8WHU9wZW5TU0wgR2VuZXJh
dGVkIENlcnRpZmljYXRlMB0GA1UdDgQWBBRxSGY7ssCOQvjal3ZZCxWEHfPduDAf
BgNVHSMEGDAWgBRcCi6pw6iVuhgcGhkKL80t5By2TzANBgkqhkiG9w0BAQsFAAOC
AgEApsvDGyPa3LhkZxvl+m88CtjU6jKpO0I4CwoL19kruag9trVqRUYHJ+pTlwoH
BjJYUl4XrewWdxsfJN1y3rcWoah1fYsj6B5SRhOT6fmLdH4MvOns3u/daMGfxXf8
KjTgNKsjq7/l91KPWjDQNUx50Izhcq7iRTtdpBy0/kYNhE5ilhVyhSjdxEVRn33O
aGOAqfxNeSWfaBy+sKlpjDAq0pYIpBlc11sI/FaTiQx88zvFHMeoaSd1CLaLAlWX
AxlNfRfwkxFe9XoI8+7Ik1qvT5HS5CBHS9ojJCr3T6SUim6cHyEJ+nX3XTSWITGK
l+HJAm869e8GkLmXSa1UcnJlsuwdUyarqHZCH/rCorjWIA7bcGgmV2XY7y2fJdIC
z81W4MZKBzKiCQEFjzPg8oQT3k63dRMJxe2w69k/uEiowLYtevzwpAgB6NCHqJzN
DGzWsaT8qUmsOPOToDcJK9/+kpGIs9T6jPLZP8bbabaj366cvMpDCGvGnksx2bml
st8DYA8CedbuXkZD5x0AtluX/6553Hds94P9sOmjQgGj4luxjKCVmRvtbRlPWUNM
OkwKIp2kxv4xynNCyX8Mthvhwq0C+257jnu/Ns8OnTYuZ+zAZD0oOTaezxSpoxuN
r0rnaj7Gfj/ae4S5ZcC67ui/FLDVb95cVuxN4J1G2x2t61k=
-----END CERTIFICATE-----
